target datalayout = "e-m:e-p270:32:32-p271:32:32-p272:64:64-i64:64-i128:128-f80:128-n8:16:32:64-S128"
target triple = "x86_64-pc-linux-gnu"

%"class.Imf_3_4::TileOffsets" = type { i32, i32, i32, %"class.std::vector" }
%"class.std::vector" = type { %"struct.std::_Vector_base" }
%"struct.std::_Vector_base" = type { %"struct.std::_Vector_base<std::vector<std::vector<unsigned long>>, std::allocator<std::vector<std::vector<unsigned long>>>>::_Vector_impl" }
%"struct.std::_Vector_base<std::vector<std::vector<unsigned long>>, std::allocator<std::vector<std::vector<unsigned long>>>>::_Vector_impl" = type { %"struct.std::_Vector_base<std::vector<std::vector<unsigned long>>, std::allocator<std::vector<std::vector<unsigned long>>>>::_Vector_impl_data" }
%"struct.std::_Vector_base<std::vector<std::vector<unsigned long>>, std::allocator<std::vector<std::vector<unsigned long>>>>::_Vector_impl_data" = type { ptr, ptr, ptr }
%"class.std::vector.0" = type { %"struct.std::_Vector_base.1" }
%"struct.std::_Vector_base.1" = type { %"struct.std::_Vector_base<std::vector<unsigned long>, std::allocator<std::vector<unsigned long>>>::_Vector_impl" }
%"struct.std::_Vector_base<std::vector<unsigned long>, std::allocator<std::vector<unsigned long>>>::_Vector_impl" = type { %"struct.std::_Vector_base<std::vector<unsigned long>, std::allocator<std::vector<unsigned long>>>::_Vector_impl_data" }
%"struct.std::_Vector_base<std::vector<unsigned long>, std::allocator<std::vector<unsigned long>>>::_Vector_impl_data" = type { ptr, ptr, ptr }
%"class.std::vector.5" = type { %"struct.std::_Vector_base.6" }
%"struct.std::_Vector_base.6" = type { %"struct.std::_Vector_base<unsigned long, std::allocator<unsigned long>>::_Vector_impl" }
%"struct.std::_Vector_base<unsigned long, std::allocator<unsigned long>>::_Vector_impl" = type { %"struct.std::_Vector_base<unsigned long, std::allocator<unsigned long>>::_Vector_impl_data" }
%"struct.std::_Vector_base<unsigned long, std::allocator<unsigned long>>::_Vector_impl_data" = type { ptr, ptr, ptr }

@_ZTIN7Iex_3_46ArgExcE = external constant ptr
@.str.6 = private unnamed_addr constant [26 x i8] c"Unknown LevelMode format.\00", align 1

; Function Attrs: mustprogress nounwind uwtable
define linkonce_odr hidden noundef nonnull align 8 dereferenceable(8) ptr @_ZNKSt6vectorImSaImEEixEm(ptr noundef nonnull align 8 dereferenceable(24) %0, i64 noundef %1) #5 comdat align 2 {
  %3 = alloca ptr, align 8
  %4 = alloca i64, align 8
  store ptr %0, ptr %3, align 8, !tbaa !40
  store i64 %1, ptr %4, align 8, !tbaa !26
  %5 = load ptr, ptr %3, align 8
  %6 = getelementptr inbounds nuw %"struct.std::_Vector_base.6", ptr %5, i32 0, i32 0
  %7 = getelementptr inbounds nuw %"struct.std::_Vector_base<unsigned long, std::allocator<unsigned long>>::_Vector_impl_data", ptr %6, i32 0, i32 0
  %8 = load ptr, ptr %7, align 8, !tbaa !41
  %9 = load i64, ptr %4, align 8, !tbaa !26
  %10 = getelementptr inbounds nuw i64, ptr %8, i64 %9
  ret ptr %10
}

; Function Attrs: mustprogress nounwind uwtable
define linkonce_odr hidden noundef nonnull align 8 dereferenceable(24) ptr @_ZNKSt6vectorIS_ImSaImEESaIS1_EEixEm(ptr noundef nonnull align 8 dereferenceable(24) %0, i64 noundef %1) #5 comdat align 2 {
  %3 = alloca ptr, align 8
  %4 = alloca i64, align 8
  store ptr %0, ptr %3, align 8, !tbaa !35
  store i64 %1, ptr %4, align 8, !tbaa !26
  %5 = load ptr, ptr %3, align 8
  %6 = getelementptr inbounds nuw %"struct.std::_Vector_base.1", ptr %5, i32 0, i32 0
  %7 = getelementptr inbounds nuw %"struct.std::_Vector_base<std::vector<unsigned long>, std::allocator<std::vector<unsigned long>>>::_Vector_impl_data", ptr %6, i32 0, i32 0
  %8 = load ptr, ptr %7, align 8, !tbaa !36
  %9 = load i64, ptr %4, align 8, !tbaa !26
  %10 = getelementptr inbounds nuw %"class.std::vector.5", ptr %8, i64 %9
  ret ptr %10
}

; Function Attrs: mustprogress nounwind uwtable
define linkonce_odr hidden noundef nonnull align 8 dereferenceable(24) ptr @_ZNKSt6vectorIS_IS_ImSaImEESaIS1_EESaIS3_EEixEm(ptr noundef nonnull align 8 dereferenceable(24) %0, i64 noundef %1) #5 comdat align 2 {
  %3 = alloca ptr, align 8
  %4 = alloca i64, align 8
  store ptr %0, ptr %3, align 8, !tbaa !31
  store i64 %1, ptr %4, align 8, !tbaa !26
  %5 = load ptr, ptr %3, align 8
  %6 = getelementptr inbounds nuw %"struct.std::_Vector_base", ptr %5, i32 0, i32 0
  %7 = getelementptr inbounds nuw %"struct.std::_Vector_base<std::vector<std::vector<unsigned long>>, std::allocator<std::vector<std::vector<unsigned long>>>>::_Vector_impl_data", ptr %6, i32 0, i32 0
  %8 = load ptr, ptr %7, align 8, !tbaa !33
  %9 = load i64, ptr %4, align 8, !tbaa !26
  %10 = getelementptr inbounds nuw %"class.std::vector.0", ptr %8, i64 %9
  ret ptr %10
}

; Function Attrs: mustprogress uwtable
define noundef nonnull align 8 dereferenceable(8) ptr @_ZNK7Imf_3_411TileOffsetsclEiiii(ptr noundef nonnull align 8 dereferenceable(40) %0, i32 noundef %1, i32 noundef %2, i32 noundef %3, i32 noundef %4) #4 align 2 personality ptr @__gxx_personality_v0 {
  %6 = alloca ptr, align 8
  %7 = alloca ptr, align 8
  %8 = alloca i32, align 4
  %9 = alloca i32, align 4
  %10 = alloca i32, align 4
  %11 = alloca i32, align 4
  %12 = alloca ptr, align 8
  %13 = alloca i32, align 4
  store ptr %0, ptr %7, align 8, !tbaa !3
  store i32 %1, ptr %8, align 4, !tbaa !10
  store i32 %2, ptr %9, align 4, !tbaa !10
  store i32 %3, ptr %10, align 4, !tbaa !10
  store i32 %4, ptr %11, align 4, !tbaa !10
  %14 = load ptr, ptr %7, align 8
  %15 = getelementptr inbounds nuw %"class.Imf_3_4::TileOffsets", ptr %14, i32 0, i32 0
  %16 = load i32, ptr %15, align 8, !tbaa !14
  switch i32 %16, label %53 [
    i32 0, label %17
    i32 1, label %26
    i32 2, label %37
  ]

17:                                               ; preds = %5
  %18 = getelementptr inbounds nuw %"class.Imf_3_4::TileOffsets", ptr %14, i32 0, i32 3
  %19 = call noundef nonnull align 8 dereferenceable(24) ptr @_ZNKSt6vectorIS_IS_ImSaImEESaIS1_EESaIS3_EEixEm(ptr noundef nonnull align 8 dereferenceable(24) %18, i64 noundef 0) #3
  %20 = load i32, ptr %9, align 4, !tbaa !10
  %21 = sext i32 %20 to i64
  %22 = call noundef nonnull align 8 dereferenceable(24) ptr @_ZNKSt6vectorIS_ImSaImEESaIS1_EEixEm(ptr noundef nonnull align 8 dereferenceable(24) %19, i64 noundef %21) #3
  %23 = load i32, ptr %8, align 4, !tbaa !10
  %24 = sext i32 %23 to i64
  %25 = call noundef nonnull align 8 dereferenceable(8) ptr @_ZNKSt6vectorImSaImEEixEm(ptr noundef nonnull align 8 dereferenceable(24) %22, i64 noundef %24) #3
  store ptr %25, ptr %6, align 8
  br label %60

26:                                               ; preds = %5
  %27 = getelementptr inbounds nuw %"class.Imf_3_4::TileOffsets", ptr %14, i32 0, i32 3
  %28 = load i32, ptr %10, align 4, !tbaa !10
  %29 = sext i32 %28 to i64
  %30 = call noundef nonnull align 8 dereferenceable(24) ptr @_ZNKSt6vectorIS_IS_ImSaImEESaIS1_EESaIS3_EEixEm(ptr noundef nonnull align 8 dereferenceable(24) %27, i64 noundef %29) #3
  %31 = load i32, ptr %9, align 4, !tbaa !10
  %32 = sext i32 %31 to i64
  %33 = call noundef nonnull align 8 dereferenceable(24) ptr @_ZNKSt6vectorIS_ImSaImEESaIS1_EEixEm(ptr noundef nonnull align 8 dereferenceable(24) %30, i64 noundef %32) #3
  %34 = load i32, ptr %8, align 4, !tbaa !10
  %35 = sext i32 %34 to i64
  %36 = call noundef nonnull align 8 dereferenceable(8) ptr @_ZNKSt6vectorImSaImEEixEm(ptr noundef nonnull align 8 dereferenceable(24) %33, i64 noundef %35) #3
  store ptr %36, ptr %6, align 8
  br label %60

37:                                               ; preds = %5
  %38 = getelementptr inbounds nuw %"class.Imf_3_4::TileOffsets", ptr %14, i32 0, i32 3
  %39 = load i32, ptr %10, align 4, !tbaa !10
  %40 = load i32, ptr %11, align 4, !tbaa !10
  %41 = getelementptr inbounds nuw %"class.Imf_3_4::TileOffsets", ptr %14, i32 0, i32 1
  %42 = load i32, ptr %41, align 4, !tbaa !21
  %43 = mul nsw i32 %40, %42
  %44 = add nsw i32 %39, %43
  %45 = sext i32 %44 to i64
  %46 = call noundef nonnull align 8 dereferenceable(24) ptr @_ZNKSt6vectorIS_IS_ImSaImEESaIS1_EESaIS3_EEixEm(ptr noundef nonnull align 8 dereferenceable(24) %38, i64 noundef %45) #3
  %47 = load i32, ptr %9, align 4, !tbaa !10
  %48 = sext i32 %47 to i64
  %49 = call noundef nonnull align 8 dereferenceable(24) ptr @_ZNKSt6vectorIS_ImSaImEESaIS1_EEixEm(ptr noundef nonnull align 8 dereferenceable(24) %46, i64 noundef %48) #3
  %50 = load i32, ptr %8, align 4, !tbaa !10
  %51 = sext i32 %50 to i64
  %52 = call noundef nonnull align 8 dereferenceable(8) ptr @_ZNKSt6vectorImSaImEEixEm(ptr noundef nonnull align 8 dereferenceable(24) %49, i64 noundef %51) #3
  store ptr %52, ptr %6, align 8
  br label %60

53:                                               ; preds = %5
  %54 = call ptr @__cxa_allocate_exception(i64 72) #3
  invoke void @_ZN7Iex_3_46ArgExcC1EPKc(ptr noundef nonnull align 8 dereferenceable(72) %54, ptr noundef @.str.6)
          to label %55 unwind label %56

55:                                               ; preds = %53
  call void @__cxa_throw(ptr %54, ptr @_ZTIN7Iex_3_46ArgExcE, ptr @_ZN7Iex_3_46ArgExcD1Ev) #18
  unreachable

56:                                               ; preds = %53
  %57 = landingpad { ptr, i32 }
          cleanup
  %58 = extractvalue { ptr, i32 } %57, 0
  store ptr %58, ptr %12, align 8
  %59 = extractvalue { ptr, i32 } %57, 1
  store i32 %59, ptr %13, align 4
  call void @__cxa_free_exception(ptr %54) #3
  br label %62

60:                                               ; preds = %37, %26, %17
  %61 = load ptr, ptr %6, align 8
  ret ptr %61

62:                                               ; preds = %56
  %63 = load ptr, ptr %12, align 8
  %64 = load i32, ptr %13, align 4
  %65 = insertvalue { ptr, i32 } poison, ptr %63, 0
  %66 = insertvalue { ptr, i32 } %65, i32 %64, 1
  resume { ptr, i32 } %66
}