; Function Attrs: mustprogress uwtable
define noundef nonnull align 8 dereferenceable(8) ptr @_ZNK7Imf_3_411TileOffsetsclEiiii(ptr noundef nonnull readonly align 8 captures(none) dereferenceable(40) %0, i32 noundef %1, i32 noundef %2, i32 noundef %3, i32 noundef %4) local_unnamed_addr #3 align 2 personality ptr @__gxx_personality_v0 {
  %6 = load i32, ptr %0, align 8, !tbaa !3
  switch i32 %6, label %42 [
    i32 0, label %7
    i32 1, label %16
    i32 2, label %27
  ]

7:                                                ; preds = %5
  %8 = getelementptr inbounds nuw i8, ptr %0, i64 16
  %9 = load ptr, ptr %8, align 8, !tbaa !18
  %10 = sext i32 %2 to i64
  %11 = load ptr, ptr %9, align 8, !tbaa !23
  %12 = getelementptr inbounds nuw %"class.std::vector.5", ptr %11, i64 %10
  %13 = sext i32 %1 to i64
  %14 = load ptr, ptr %12, align 8, !tbaa !24
  %15 = getelementptr inbounds nuw i64, ptr %14, i64 %13
  br label %47

16:                                               ; preds = %5
  %17 = getelementptr inbounds nuw i8, ptr %0, i64 16
  %18 = sext i32 %3 to i64
  %19 = load ptr, ptr %17, align 8, !tbaa !18
  %20 = getelementptr inbounds nuw %"class.std::vector.0", ptr %19, i64 %18
  %21 = sext i32 %2 to i64
  %22 = load ptr, ptr %20, align 8, !tbaa !23
  %23 = getelementptr inbounds nuw %"class.std::vector.5", ptr %22, i64 %21
  %24 = sext i32 %1 to i64
  %25 = load ptr, ptr %23, align 8, !tbaa !24
  %26 = getelementptr inbounds nuw i64, ptr %25, i64 %24
  br label %47

27:                                               ; preds = %5
  %28 = getelementptr inbounds nuw i8, ptr %0, i64 16
  %29 = getelementptr inbounds nuw i8, ptr %0, i64 4
  %30 = load i32, ptr %29, align 4, !tbaa !15
  %31 = mul nsw i32 %30, %4
  %32 = add nsw i32 %31, %3
  %33 = sext i32 %32 to i64
  %34 = load ptr, ptr %28, align 8, !tbaa !18
  %35 = getelementptr inbounds nuw %"class.std::vector.0", ptr %34, i64 %33
  %36 = sext i32 %2 to i64
  %37 = load ptr, ptr %35, align 8, !tbaa !23
  %38 = getelementptr inbounds nuw %"class.std::vector.5", ptr %37, i64 %36
  %39 = sext i32 %1 to i64
  %40 = load ptr, ptr %38, align 8, !tbaa !24
  %41 = getelementptr inbounds nuw i64, ptr %40, i64 %39
  br label %47

42:                                               ; preds = %5
  %43 = tail call ptr @__cxa_allocate_exception(i64 72) #23
  invoke void @_ZN7Iex_3_46ArgExcC1EPKc(ptr noundef nonnull align 8 dereferenceable(72) %43, ptr noundef nonnull @.str.6)
          to label %44 unwind label %45

44:                                               ; preds = %42
  tail call void @__cxa_throw(ptr nonnull %43, ptr nonnull @_ZTIN7Iex_3_46ArgExcE, ptr nonnull @_ZN7Iex_3_46ArgExcD1Ev) #21
  unreachable

45:                                               ; preds = %42
  %46 = landingpad { ptr, i32 }
          cleanup
  tail call void @__cxa_free_exception(ptr nonnull %43) #23
  resume { ptr, i32 } %46

47:                                               ; preds = %27, %16, %7
  %.0 = phi ptr [ %41, %27 ], [ %26, %16 ], [ %15, %7 ]
  ret ptr %.0
}